target datalayout = "e-m:e-p270:32:32-p271:32:32-p272:64:64-i64:64-i128:128-f80:128-n8:16:32:64-S128"
target triple = "x86_64-unknown-linux-gnu"

%class.btVector3 = type { [4 x float] }
%class.btMatrix3x3 = type { [3 x %class.btVector3] }
%class.btTransform = type { %class.btMatrix3x3, %class.btVector3 }

; Function Attrs: mustprogress uwtable
define linkonce_odr dso_local void @_ZN11btMatrix3x38setValueERKfS1_S1_S1_S1_S1_S1_S1_S1_(ptr noundef nonnull align 4 dereferenceable(48) %this, ptr noundef nonnull align 4 dereferenceable(4) %xx, ptr noundef nonnull align 4 dereferenceable(4) %xy, ptr noundef nonnull align 4 dereferenceable(4) %xz, ptr noundef nonnull align 4 dereferenceable(4) %yx, ptr noundef nonnull align 4 dereferenceable(4) %yy, ptr noundef nonnull align 4 dereferenceable(4) %yz, ptr noundef nonnull align 4 dereferenceable(4) %zx, ptr noundef nonnull align 4 dereferenceable(4) %zy, ptr noundef nonnull align 4 dereferenceable(4) %zz) #5 comdat align 2 {
entry:
  %this.addr = alloca ptr, align 8
  %xx.addr = alloca ptr, align 8
  %xy.addr = alloca ptr, align 8
  %xz.addr = alloca ptr, align 8
  %yx.addr = alloca ptr, align 8
  %yy.addr = alloca ptr, align 8
  %yz.addr = alloca ptr, align 8
  %zx.addr = alloca ptr, align 8
  %zy.addr = alloca ptr, align 8
  %zz.addr = alloca ptr, align 8
  store ptr %this, ptr %this.addr, align 8
  store ptr %xx, ptr %xx.addr, align 8
  store ptr %xy, ptr %xy.addr, align 8
  store ptr %xz, ptr %xz.addr, align 8
  store ptr %yx, ptr %yx.addr, align 8
  store ptr %yy, ptr %yy.addr, align 8
  store ptr %yz, ptr %yz.addr, align 8
  store ptr %zx, ptr %zx.addr, align 8
  store ptr %zy, ptr %zy.addr, align 8
  store ptr %zz, ptr %zz.addr, align 8
  %this1 = load ptr, ptr %this.addr, align 8
  %m_el = getelementptr inbounds %class.btMatrix3x3, ptr %this1, i32 0, i32 0
  %arrayidx = getelementptr inbounds [3 x %class.btVector3], ptr %m_el, i64 0, i64 0
  %0 = load ptr, ptr %xx.addr, align 8
  %1 = load ptr, ptr %xy.addr, align 8
  %2 = load ptr, ptr %xz.addr, align 8
  call void @_ZN9btVector38setValueERKfS1_S1_(ptr noundef nonnull align 4 dereferenceable(16) %arrayidx, ptr noundef nonnull align 4 dereferenceable(4) %0, ptr noundef nonnull align 4 dereferenceable(4) %1, ptr noundef nonnull align 4 dereferenceable(4) %2)
  %m_el2 = getelementptr inbounds %class.btMatrix3x3, ptr %this1, i32 0, i32 0
  %arrayidx3 = getelementptr inbounds [3 x %class.btVector3], ptr %m_el2, i64 0, i64 1
  %3 = load ptr, ptr %yx.addr, align 8
  %4 = load ptr, ptr %yy.addr, align 8
  %5 = load ptr, ptr %yz.addr, align 8
  call void @_ZN9btVector38setValueERKfS1_S1_(ptr noundef nonnull align 4 dereferenceable(16) %arrayidx3, ptr noundef nonnull align 4 dereferenceable(4) %3, ptr noundef nonnull align 4 dereferenceable(4) %4, ptr noundef nonnull align 4 dereferenceable(4) %5)
  %m_el4 = getelementptr inbounds %class.btMatrix3x3, ptr %this1, i32 0, i32 0
  %arrayidx5 = getelementptr inbounds [3 x %class.btVector3], ptr %m_el4, i64 0, i64 2
  %6 = load ptr, ptr %zx.addr, align 8
  %7 = load ptr, ptr %zy.addr, align 8
  %8 = load ptr, ptr %zz.addr, align 8
  call void @_ZN9btVector38setValueERKfS1_S1_(ptr noundef nonnull align 4 dereferenceable(16) %arrayidx5, ptr noundef nonnull align 4 dereferenceable(4) %6, ptr noundef nonnull align 4 dereferenceable(4) %7, ptr noundef nonnull align 4 dereferenceable(4) %8)
  ret void
}

; Function Attrs: mustprogress nounwind uwtable
define linkonce_odr dso_local void @_ZN9btVector38setValueERKfS1_S1_(ptr noundef nonnull align 4 dereferenceable(16) %this, ptr noundef nonnull align 4 dereferenceable(4) %_x, ptr noundef nonnull align 4 dereferenceable(4) %_y, ptr noundef nonnull align 4 dereferenceable(4) %_z) #1 comdat align 2 {
entry:
  %this.addr = alloca ptr, align 8
  %_x.addr = alloca ptr, align 8
  %_y.addr = alloca ptr, align 8
  %_z.addr = alloca ptr, align 8
  store ptr %this, ptr %this.addr, align 8
  store ptr %_x, ptr %_x.addr, align 8
  store ptr %_y, ptr %_y.addr, align 8
  store ptr %_z, ptr %_z.addr, align 8
  %this1 = load ptr, ptr %this.addr, align 8
  %0 = load ptr, ptr %_x.addr, align 8
  %1 = load float, ptr %0, align 4
  %m_floats = getelementptr inbounds %class.btVector3, ptr %this1, i32 0, i32 0
  %arrayidx = getelementptr inbounds [4 x float], ptr %m_floats, i64 0, i64 0
  store float %1, ptr %arrayidx, align 4
  %2 = load ptr, ptr %_y.addr, align 8
  %3 = load float, ptr %2, align 4
  %m_floats2 = getelementptr inbounds %class.btVector3, ptr %this1, i32 0, i32 0
  %arrayidx3 = getelementptr inbounds [4 x float], ptr %m_floats2, i64 0, i64 1
  store float %3, ptr %arrayidx3, align 4
  %4 = load ptr, ptr %_z.addr, align 8
  %5 = load float, ptr %4, align 4
  %m_floats4 = getelementptr inbounds %class.btVector3, ptr %this1, i32 0, i32 0
  %arrayidx5 = getelementptr inbounds [4 x float], ptr %m_floats4, i64 0, i64 2
  store float %5, ptr %arrayidx5, align 4
  %m_floats6 = getelementptr inbounds %class.btVector3, ptr %this1, i32 0, i32 0
  %arrayidx7 = getelementptr inbounds [4 x float], ptr %m_floats6, i64 0, i64 3
  store float 0.000000e+00, ptr %arrayidx7, align 4
  ret void
}

; Function Attrs: mustprogress uwtable
define linkonce_odr dso_local void @_ZN11btMatrix3x311setIdentityEv(ptr noundef nonnull align 4 dereferenceable(48) %this) #5 comdat align 2 {
entry:
  %this.addr = alloca ptr, align 8
  %ref.tmp = alloca float, align 4
  %ref.tmp2 = alloca float, align 4
  %ref.tmp3 = alloca float, align 4
  %ref.tmp4 = alloca float, align 4
  %ref.tmp5 = alloca float, align 4
  %ref.tmp6 = alloca float, align 4
  %ref.tmp7 = alloca float, align 4
  %ref.tmp8 = alloca float, align 4
  %ref.tmp9 = alloca float, align 4
  store ptr %this, ptr %this.addr, align 8
  %this1 = load ptr, ptr %this.addr, align 8
  store float 1.000000e+00, ptr %ref.tmp, align 4
  store float 0.000000e+00, ptr %ref.tmp2, align 4
  store float 0.000000e+00, ptr %ref.tmp3, align 4
  store float 0.000000e+00, ptr %ref.tmp4, align 4
  store float 1.000000e+00, ptr %ref.tmp5, align 4
  store float 0.000000e+00, ptr %ref.tmp6, align 4
  store float 0.000000e+00, ptr %ref.tmp7, align 4
  store float 0.000000e+00, ptr %ref.tmp8, align 4
  store float 1.000000e+00, ptr %ref.tmp9, align 4
  call void @_ZN11btMatrix3x38setValueERKfS1_S1_S1_S1_S1_S1_S1_S1_(ptr noundef nonnull align 4 dereferenceable(48) %this1, ptr noundef nonnull align 4 dereferenceable(4) %ref.tmp, ptr noundef nonnull align 4 dereferenceable(4) %ref.tmp2, ptr noundef nonnull align 4 dereferenceable(4) %ref.tmp3, ptr noundef nonnull align 4 dereferenceable(4) %ref.tmp4, ptr noundef nonnull align 4 dereferenceable(4) %ref.tmp5, ptr noundef nonnull align 4 dereferenceable(4) %ref.tmp6, ptr noundef nonnull align 4 dereferenceable(4) %ref.tmp7, ptr noundef nonnull align 4 dereferenceable(4) %ref.tmp8, ptr noundef nonnull align 4 dereferenceable(4) %ref.tmp9)
  ret void
}

; Function Attrs: mustprogress nounwind uwtable
define linkonce_odr dso_local void @_ZN9btVector3C2Ev(ptr noundef nonnull align 4 dereferenceable(16) %this) unnamed_addr #1 comdat align 2 {
entry:
  %this.addr = alloca ptr, align 8
  store ptr %this, ptr %this.addr, align 8
  ret void
}

; Function Attrs: mustprogress uwtable
define linkonce_odr dso_local void @_ZN11btMatrix3x3C2Ev(ptr noundef nonnull align 4 dereferenceable(48) %this) unnamed_addr #5 comdat align 2 {
entry:
  %this.addr = alloca ptr, align 8
  store ptr %this, ptr %this.addr, align 8
  %this1 = load ptr, ptr %this.addr, align 8
  %m_el = getelementptr inbounds %class.btMatrix3x3, ptr %this1, i32 0, i32 0
  %array.begin = getelementptr inbounds [3 x %class.btVector3], ptr %m_el, i32 0, i32 0
  %arrayctor.end = getelementptr inbounds %class.btVector3, ptr %array.begin, i64 3
  br label %arrayctor.loop

arrayctor.loop:                                   ; preds = %arrayctor.loop, %entry
  %arrayctor.cur = phi ptr [ %array.begin, %entry ], [ %arrayctor.next, %arrayctor.loop ]
  call void @_ZN9btVector3C2Ev(ptr noundef nonnull align 4 dereferenceable(16) %arrayctor.cur)
  %arrayctor.next = getelementptr inbounds %class.btVector3, ptr %arrayctor.cur, i64 1
  %arrayctor.done = icmp eq ptr %arrayctor.next, %arrayctor.end
  br i1 %arrayctor.done, label %arrayctor.cont, label %arrayctor.loop

arrayctor.cont:                                   ; preds = %arrayctor.loop
  ret void
}

; Function Attrs: mustprogress nounwind uwtable
define linkonce_odr dso_local void @_ZN11btTransform9setOriginERK9btVector3(ptr noundef nonnull align 4 dereferenceable(64) %this, ptr noundef nonnull align 4 dereferenceable(16) %origin) #1 comdat align 2 {
entry:
  %this.addr = alloca ptr, align 8
  %origin.addr = alloca ptr, align 8
  store ptr %this, ptr %this.addr, align 8
  store ptr %origin, ptr %origin.addr, align 8
  %this1 = load ptr, ptr %this.addr, align 8
  %0 = load ptr, ptr %origin.addr, align 8
  %m_origin = getelementptr inbounds %class.btTransform, ptr %this1, i32 0, i32 1
  call void @llvm.memcpy.p0.p0.i64(ptr align 4 %m_origin, ptr align 4 %0, i64 16, i1 false)
  ret void
}

; Function Attrs: mustprogress uwtable
define linkonce_odr dso_local void @_ZN11btTransform11setIdentityEv(ptr noundef nonnull align 4 dereferenceable(64) %this) #5 comdat align 2 {
entry:
  %this.addr = alloca ptr, align 8
  %ref.tmp = alloca float, align 4
  %ref.tmp2 = alloca float, align 4
  %ref.tmp3 = alloca float, align 4
  store ptr %this, ptr %this.addr, align 8
  %this1 = load ptr, ptr %this.addr, align 8
  %m_basis = getelementptr inbounds %class.btTransform, ptr %this1, i32 0, i32 0
  call void @_ZN11btMatrix3x311setIdentityEv(ptr noundef nonnull align 4 dereferenceable(48) %m_basis)
  %m_origin = getelementptr inbounds %class.btTransform, ptr %this1, i32 0, i32 1
  store float 0.000000e+00, ptr %ref.tmp, align 4
  store float 0.000000e+00, ptr %ref.tmp2, align 4
  store float 0.000000e+00, ptr %ref.tmp3, align 4
  call void @_ZN9btVector38setValueERKfS1_S1_(ptr noundef nonnull align 4 dereferenceable(16) %m_origin, ptr noundef nonnull align 4 dereferenceable(4) %ref.tmp, ptr noundef nonnull align 4 dereferenceable(4) %ref.tmp2, ptr noundef nonnull align 4 dereferenceable(4) %ref.tmp3)
  ret void
}

; Function Attrs: mustprogress uwtable
define linkonce_odr dso_local void @_ZN11btTransformC2Ev(ptr noundef nonnull align 4 dereferenceable(64) %this) unnamed_addr #5 comdat align 2 {
entry:
  %this.addr = alloca ptr, align 8
  store ptr %this, ptr %this.addr, align 8
  %this1 = load ptr, ptr %this.addr, align 8
  %m_basis = getelementptr inbounds %class.btTransform, ptr %this1, i32 0, i32 0
  call void @_ZN11btMatrix3x3C2Ev(ptr noundef nonnull align 4 dereferenceable(48) %m_basis)
  %m_origin = getelementptr inbounds %class.btTransform, ptr %this1, i32 0, i32 1
  call void @_ZN9btVector3C2Ev(ptr noundef nonnull align 4 dereferenceable(16) %m_origin)
  ret void
}

; Function Attrs: mustprogress uwtable
define dso_local void @_ZN10btSoftBody9translateERK9btVector3(ptr noundef nonnull align 8 dereferenceable(2064) %this, ptr noundef nonnull align 4 dereferenceable(16) %trs) unnamed_addr #5 align 2 {
entry:
  %this.addr = alloca ptr, align 8
  %trs.addr = alloca ptr, align 8
  %t = alloca %class.btTransform, align 4
  store ptr %this, ptr %this.addr, align 8
  store ptr %trs, ptr %trs.addr, align 8
  %this1 = load ptr, ptr %this.addr, align 8
  call void @_ZN11btTransformC2Ev(ptr noundef nonnull align 4 dereferenceable(64) %t)
  call void @_ZN11btTransform11setIdentityEv(ptr noundef nonnull align 4 dereferenceable(64) %t)
  %0 = load ptr, ptr %trs.addr, align 8
  call void @_ZN11btTransform9setOriginERK9btVector3(ptr noundef nonnull align 4 dereferenceable(64) %t, ptr noundef nonnull align 4 dereferenceable(16) %0)
  %vtable = load ptr, ptr %this1, align 8
  %vfn = getelementptr inbounds ptr, ptr %vtable, i64 8
  %1 = load ptr, ptr %vfn, align 8
  call void %1(ptr noundef nonnull align 8 dereferenceable(2064) %this1, ptr noundef nonnull align 4 dereferenceable(64) %t)
  ret void
}