; Function Attrs: mustprogress uwtable
define dso_local void @_ZN10btSoftBody9translateERK9btVector3(ptr noundef nonnull align 8 dereferenceable(2064) %this, ptr nocapture noundef nonnull readonly align 4 dereferenceable(16) %trs) unnamed_addr #4 align 2 {
entry:
  %t = alloca %class.btTransform, align 4
  store float 1.000000e+00, ptr %t, align 4
  %arrayidx3.i.i.i.i = getelementptr inbounds i8, ptr %t, i64 4
  %arrayidx3.i1.i.i.i = getelementptr inbounds i8, ptr %t, i64 20
  call void @llvm.memset.p0.i64(ptr noundef nonnull align 4 dereferenceable(16) %arrayidx3.i.i.i.i, i8 0, i64 16, i1 false)
  store float 1.000000e+00, ptr %arrayidx3.i1.i.i.i, align 4
  %arrayidx5.i2.i.i.i = getelementptr inbounds i8, ptr %t, i64 24
  %arrayidx5.i5.i.i.i = getelementptr inbounds i8, ptr %t, i64 40
  call void @llvm.memset.p0.i64(ptr noundef nonnull align 4 dereferenceable(16) %arrayidx5.i2.i.i.i, i8 0, i64 16, i1 false)
  store float 1.000000e+00, ptr %arrayidx5.i5.i.i.i, align 4
  %arrayidx7.i6.i.i.i = getelementptr inbounds i8, ptr %t, i64 44
  store i32 0, ptr %arrayidx7.i6.i.i.i, align 4
  %m_origin.i = getelementptr inbounds i8, ptr %t, i64 48
  call void @llvm.memcpy.p0.p0.i64(ptr noundef nonnull align 4 dereferenceable(16) %m_origin.i, ptr noundef nonnull align 4 dereferenceable(16) %trs, i64 16, i1 false)
  %vtable = load ptr, ptr %this, align 8
  %vfn = getelementptr inbounds i8, ptr %vtable, i64 64
  %0 = load ptr, ptr %vfn, align 8
  call void %0(ptr noundef nonnull align 8 dereferenceable(2064) %this, ptr noundef nonnull align 4 dereferenceable(64) %t)
  ret void
}